target datalayout = "e-m:e-p270:32:32-p271:32:32-p272:64:64-i64:64-i128:128-f80:128-n8:16:32:64-S128"
target triple = "x86_64-pc-linux-gnu"

%struct.ImGuiInputTextCallbackData = type { ptr, i32, i32, ptr, i16, i32, ptr, i32, i32, i8, i32, i32, i32 }

@.str.1164 = private unnamed_addr constant [6 x i8] c"imgui\00", align 1

; Function Attrs: mustprogress nounwind uwtable
define internal noundef i32 @_ZZL21ShowDemoWindowWidgetsP19ImGuiDemoWindowDataEN11TextFilters18FilterImGuiLettersEP26ImGuiInputTextCallbackData(ptr noundef %0) #3 align 2 {
  %2 = alloca i32, align 4
  %3 = alloca ptr, align 8
  store ptr %0, ptr %3, align 8, !tbaa !444
  %4 = load ptr, ptr %3, align 8, !tbaa !444
  %5 = getelementptr inbounds nuw %struct.ImGuiInputTextCallbackData, ptr %4, i32 0, i32 4
  %6 = load i16, ptr %5, align 8, !tbaa !446
  %7 = zext i16 %6 to i32
  %8 = icmp slt i32 %7, 256
  br i1 %8, label %9, label %18

9:                                                ; preds = %1
  %10 = load ptr, ptr %3, align 8, !tbaa !444
  %11 = getelementptr inbounds nuw %struct.ImGuiInputTextCallbackData, ptr %10, i32 0, i32 4
  %12 = load i16, ptr %11, align 8, !tbaa !446
  %13 = trunc i16 %12 to i8
  %14 = sext i8 %13 to i32
  %15 = call noundef ptr @strchr(ptr noundef @.str.1164, i32 noundef %14) #19
  %16 = icmp ne ptr %15, null
  br i1 %16, label %17, label %18

17:                                               ; preds = %9
  store i32 0, ptr %2, align 4
  br label %19

18:                                               ; preds = %9, %1
  store i32 1, ptr %2, align 4
  br label %19

19:                                               ; preds = %18, %17
  %20 = load i32, ptr %2, align 4
  ret i32 %20
}